target datalayout = "e-m:e-p270:32:32-p271:32:32-p272:64:64-i64:64-i128:128-f80:128-n8:16:32:64-S128"
target triple = "x86_64-unknown-linux-gnu"

%"struct.polynomial::factor_params" = type { i32, i32, i32 }

@.str = private unnamed_addr constant [10 x i8] c"max_prime\00", align 1
@.str.1 = private unnamed_addr constant [11 x i8] c"num_primes\00", align 1
@.str.2 = private unnamed_addr constant [16 x i8] c"max_search_size\00", align 1

; Function Attrs: mustprogress uwtable
define hidden void @_ZN10polynomial13factor_params11updt_paramsERK10params_ref(ptr noundef nonnull align 4 dereferenceable(12) %this, ptr noundef nonnull align 8 dereferenceable(8) %p) #5 align 2 {
entry:
  %this.addr = alloca ptr, align 8
  %p.addr = alloca ptr, align 8
  store ptr %this, ptr %this.addr, align 8
  store ptr %p, ptr %p.addr, align 8
  %this1 = load ptr, ptr %this.addr, align 8
  %0 = load ptr, ptr %p.addr, align 8
  %call = call noundef i32 @_ZNK10params_ref8get_uintEPKcj(ptr noundef nonnull align 8 dereferenceable(8) %0, ptr noundef @.str, i32 noundef -1)
  %m_max_p = getelementptr inbounds %"struct.polynomial::factor_params", ptr %this1, i32 0, i32 0
  store i32 %call, ptr %m_max_p, align 4
  %1 = load ptr, ptr %p.addr, align 8
  %call2 = call noundef i32 @_ZNK10params_ref8get_uintEPKcj(ptr noundef nonnull align 8 dereferenceable(8) %1, ptr noundef @.str.1, i32 noundef 1)
  %m_p_trials = getelementptr inbounds %"struct.polynomial::factor_params", ptr %this1, i32 0, i32 1
  store i32 %call2, ptr %m_p_trials, align 4
  %2 = load ptr, ptr %p.addr, align 8
  %call3 = call noundef i32 @_ZNK10params_ref8get_uintEPKcj(ptr noundef nonnull align 8 dereferenceable(8) %2, ptr noundef @.str.2, i32 noundef -1)
  %m_max_search_size = getelementptr inbounds %"struct.polynomial::factor_params", ptr %this1, i32 0, i32 2
  store i32 %call3, ptr %m_max_search_size, align 4
  ret void
}