; Function Attrs: mustprogress uwtable
define hidden void @_ZN10polynomial13factor_params11updt_paramsERK10params_ref(ptr nocapture noundef nonnull writeonly align 4 dereferenceable(12) %this, ptr noundef nonnull align 8 dereferenceable(8) %p) local_unnamed_addr #4 align 2 {
entry:
  %call = tail call noundef i32 @_ZNK10params_ref8get_uintEPKcj(ptr noundef nonnull align 8 dereferenceable(8) %p, ptr noundef nonnull @.str, i32 noundef -1)
  store i32 %call, ptr %this, align 4
  %call2 = tail call noundef i32 @_ZNK10params_ref8get_uintEPKcj(ptr noundef nonnull align 8 dereferenceable(8) %p, ptr noundef nonnull @.str.1, i32 noundef 1)
  %m_p_trials = getelementptr inbounds i8, ptr %this, i64 4
  store i32 %call2, ptr %m_p_trials, align 4
  %call3 = tail call noundef i32 @_ZNK10params_ref8get_uintEPKcj(ptr noundef nonnull align 8 dereferenceable(8) %p, ptr noundef nonnull @.str.2, i32 noundef -1)
  %m_max_search_size = getelementptr inbounds i8, ptr %this, i64 8
  store i32 %call3, ptr %m_max_search_size, align 4
  ret void
}